target datalayout = "e-m:e-p270:32:32-p271:32:32-p272:64:64-i64:64-i128:128-f80:128-n8:16:32:64-S128"
target triple = "x86_64-pc-linux-gnu"

%struct.SDL_HIDAPI_Device = type { ptr, ptr, ptr, ptr, i16, i16, i16, ptr, %struct.SDL_GUID, i32, i32, i32, i32, i16, i16, i8, i32, i32, i32, ptr, ptr, ptr, ptr, %struct.SDL_AtomicInt, i32, ptr, i8, i8, i8, ptr, i32, ptr, ptr }
%struct.SDL_GUID = type { [16 x i8] }
%struct.SDL_AtomicInt = type { i32 }
%struct.SDL_DriverPS5_Context = type { ptr, ptr, i8, i8, i8, i8, i8, i8, i8, i8, i32, i8, i8, i8, i8, i8, i8, i8, [6 x %struct.IMUCalibrationData], i16, i64, i32, i8, i8, i8, i8, i8, i8, i8, i32, i64, i32, %union.anon }
%struct.IMUCalibrationData = type { i16, float }
%union.anon = type { [64 x i8] }
%struct.SDL_Joystick = type { i32, ptr, ptr, ptr, %struct.SDL_GUID, i16, i64, i8, i8, i32, ptr, i32, ptr, i32, ptr, i32, ptr, i32, ptr, i32, i32, ptr, i16, i16, i64, i64, i16, i16, i64, i64, i8, i8, i8, i64, i8, i32, i32, i32, i8, i32, ptr, i32, ptr, [3 x [3 x float]], i64, ptr, ptr, i32, i32, ptr }

@.str.6 = private unnamed_addr constant [35 x i8] c"SDL_JOYSTICK_HIDAPI_PS5_PLAYER_LED\00", align 1
@.str.7 = private unnamed_addr constant [30 x i8] c"SDL_JOYSTICK_ENHANCED_REPORTS\00", align 1

; Function Attrs: nounwind uwtable
define internal zeroext i1 @HIDAPI_DriverPS5_OpenJoystick(ptr noundef %0, ptr noundef %1) #0 {
  %3 = alloca ptr, align 8
  %4 = alloca ptr, align 8
  %5 = alloca ptr, align 8
  store ptr %0, ptr %3, align 8
  store ptr %1, ptr %4, align 8
  call void @llvm.lifetime.start.p0(i64 8, ptr %5) #6
  %6 = load ptr, ptr %3, align 8
  %7 = getelementptr inbounds nuw %struct.SDL_HIDAPI_Device, ptr %6, i32 0, i32 20
  %8 = load ptr, ptr %7, align 8
  store ptr %8, ptr %5, align 8
  call void @SDL_AssertJoysticksLocked()
  %9 = load ptr, ptr %4, align 8
  %10 = load ptr, ptr %5, align 8
  %11 = getelementptr inbounds nuw %struct.SDL_DriverPS5_Context, ptr %10, i32 0, i32 1
  store ptr %9, ptr %11, align 8
  %12 = call i64 @SDL_GetTicks_REAL()
  %13 = load ptr, ptr %5, align 8
  %14 = getelementptr inbounds nuw %struct.SDL_DriverPS5_Context, ptr %13, i32 0, i32 20
  store i64 %12, ptr %14, align 8
  %15 = load ptr, ptr %5, align 8
  %16 = getelementptr inbounds nuw %struct.SDL_DriverPS5_Context, ptr %15, i32 0, i32 14
  store i8 0, ptr %16, align 1
  %17 = load ptr, ptr %5, align 8
  %18 = getelementptr inbounds nuw %struct.SDL_DriverPS5_Context, ptr %17, i32 0, i32 15
  store i8 0, ptr %18, align 8
  %19 = load ptr, ptr %5, align 8
  %20 = getelementptr inbounds nuw %struct.SDL_DriverPS5_Context, ptr %19, i32 0, i32 23
  store i8 0, ptr %20, align 1
  %21 = load ptr, ptr %5, align 8
  %22 = getelementptr inbounds nuw %struct.SDL_DriverPS5_Context, ptr %21, i32 0, i32 24
  store i8 0, ptr %22, align 2
  %23 = load ptr, ptr %5, align 8
  %24 = getelementptr inbounds nuw %struct.SDL_DriverPS5_Context, ptr %23, i32 0, i32 25
  store i8 0, ptr %24, align 1
  %25 = load ptr, ptr %5, align 8
  %26 = getelementptr inbounds nuw %struct.SDL_DriverPS5_Context, ptr %25, i32 0, i32 29
  store i32 0, ptr %26, align 4
  %27 = load ptr, ptr %5, align 8
  %28 = getelementptr inbounds nuw %struct.SDL_DriverPS5_Context, ptr %27, i32 0, i32 32
  call void @llvm.memset.p0.i64(ptr align 4 %28, i8 0, i64 64, i1 false)
  %29 = load ptr, ptr %4, align 8
  %30 = call i32 @SDL_GetJoystickPlayerIndex_REAL(ptr noundef %29)
  %31 = load ptr, ptr %5, align 8
  %32 = getelementptr inbounds nuw %struct.SDL_DriverPS5_Context, ptr %31, i32 0, i32 21
  store i32 %30, ptr %32, align 8
  %33 = call zeroext i1 @SDL_GetHintBoolean_REAL(ptr noundef @.str.6, i1 noundef zeroext true)
  %34 = load ptr, ptr %5, align 8
  %35 = getelementptr inbounds nuw %struct.SDL_DriverPS5_Context, ptr %34, i32 0, i32 22
  %36 = zext i1 %33 to i8
  store i8 %36, ptr %35, align 4
  %37 = load ptr, ptr %3, align 8
  %38 = getelementptr inbounds nuw %struct.SDL_HIDAPI_Device, ptr %37, i32 0, i32 4
  %39 = load i16, ptr %38, align 8
  %40 = load ptr, ptr %3, align 8
  %41 = getelementptr inbounds nuw %struct.SDL_HIDAPI_Device, ptr %40, i32 0, i32 5
  %42 = load i16, ptr %41, align 2
  %43 = call zeroext i1 @SDL_IsJoystickDualSenseEdge(i16 noundef zeroext %39, i16 noundef zeroext %42)
  br i1 %43, label %44, label %47

44:                                               ; preds = %2
  %45 = load ptr, ptr %4, align 8
  %46 = getelementptr inbounds nuw %struct.SDL_Joystick, ptr %45, i32 0, i32 15
  store i32 17, ptr %46, align 8
  br label %59

47:                                               ; preds = %2
  %48 = load ptr, ptr %5, align 8
  %49 = getelementptr inbounds nuw %struct.SDL_DriverPS5_Context, ptr %48, i32 0, i32 8
  %50 = load i8, ptr %49, align 2, !range !5, !noundef !6
  %51 = trunc i8 %50 to i1
  br i1 %51, label %52, label %55

52:                                               ; preds = %47
  %53 = load ptr, ptr %4, align 8
  %54 = getelementptr inbounds nuw %struct.SDL_Joystick, ptr %53, i32 0, i32 15
  store i32 13, ptr %54, align 8
  br label %58

55:                                               ; preds = %47
  %56 = load ptr, ptr %4, align 8
  %57 = getelementptr inbounds nuw %struct.SDL_Joystick, ptr %56, i32 0, i32 15
  store i32 11, ptr %57, align 8
  br label %58

58:                                               ; preds = %55, %52
  br label %59

59:                                               ; preds = %58, %44
  %60 = load ptr, ptr %4, align 8
  %61 = getelementptr inbounds nuw %struct.SDL_Joystick, ptr %60, i32 0, i32 9
  store i32 6, ptr %61, align 4
  %62 = load ptr, ptr %4, align 8
  %63 = getelementptr inbounds nuw %struct.SDL_Joystick, ptr %62, i32 0, i32 13
  store i32 1, ptr %63, align 8
  %64 = load ptr, ptr %5, align 8
  %65 = getelementptr inbounds nuw %struct.SDL_DriverPS5_Context, ptr %64, i32 0, i32 19
  %66 = load i16, ptr %65, align 4
  %67 = load ptr, ptr %4, align 8
  %68 = getelementptr inbounds nuw %struct.SDL_Joystick, ptr %67, i32 0, i32 5
  store i16 %66, ptr %68, align 8
  %69 = load ptr, ptr %5, align 8
  %70 = call zeroext i1 @SDL_AddHintCallback_REAL(ptr noundef @.str.7, ptr noundef @SDL_PS5EnhancedReportsChanged, ptr noundef %69)
  %71 = load ptr, ptr %5, align 8
  %72 = call zeroext i1 @SDL_AddHintCallback_REAL(ptr noundef @.str.6, ptr noundef @SDL_PS5PlayerLEDHintChanged, ptr noundef %71)
  call void @llvm.lifetime.end.p0(i64 8, ptr %5) #6
  ret i1 true
}