; Function Attrs: nounwind uwtable
define internal noundef zeroext i1 @HIDAPI_DriverPS5_OpenJoystick(ptr noundef readonly captures(none) %0, ptr noundef %1) #0 {
  %3 = getelementptr inbounds nuw i8, ptr %0, i64 112
  %4 = load ptr, ptr %3, align 8
  tail call void @SDL_AssertJoysticksLocked() #9
  %5 = getelementptr inbounds nuw i8, ptr %4, i64 8
  store ptr %1, ptr %5, align 8
  %6 = tail call i64 @SDL_GetTicks_REAL() #9
  %7 = getelementptr inbounds nuw i8, ptr %4, i64 88
  store i64 %6, ptr %7, align 8
  %8 = getelementptr inbounds nuw i8, ptr %4, i64 31
  store i8 0, ptr %8, align 1
  %9 = getelementptr inbounds nuw i8, ptr %4, i64 32
  store i8 0, ptr %9, align 8
  %10 = getelementptr inbounds nuw i8, ptr %4, i64 101
  store i8 0, ptr %10, align 1
  %11 = getelementptr inbounds nuw i8, ptr %4, i64 102
  store i8 0, ptr %11, align 2
  %12 = getelementptr inbounds nuw i8, ptr %4, i64 103
  store i8 0, ptr %12, align 1
  %13 = getelementptr inbounds nuw i8, ptr %4, i64 108
  store i32 0, ptr %13, align 4
  %14 = getelementptr inbounds nuw i8, ptr %4, i64 124
  tail call void @llvm.memset.p0.i64(ptr noundef nonnull align 4 dereferenceable(64) %14, i8 0, i64 64, i1 false)
  %15 = tail call i32 @SDL_GetJoystickPlayerIndex_REAL(ptr noundef %1) #9
  %16 = getelementptr inbounds nuw i8, ptr %4, i64 96
  store i32 %15, ptr %16, align 8
  %17 = tail call zeroext i1 @SDL_GetHintBoolean_REAL(ptr noundef nonnull @.str.6, i1 noundef zeroext true) #9
  %18 = getelementptr inbounds nuw i8, ptr %4, i64 100
  %19 = zext i1 %17 to i8
  store i8 %19, ptr %18, align 4
  %20 = getelementptr inbounds nuw i8, ptr %0, i64 32
  %21 = load i16, ptr %20, align 8
  %22 = getelementptr inbounds nuw i8, ptr %0, i64 34
  %23 = load i16, ptr %22, align 2
  %24 = tail call zeroext i1 @SDL_IsJoystickDualSenseEdge(i16 noundef zeroext %21, i16 noundef zeroext %23) #9
  br i1 %24, label %25, label %27

25:                                               ; preds = %2
  %26 = getelementptr inbounds nuw i8, ptr %1, i64 112
  store i32 17, ptr %26, align 8
  br label %34

27:                                               ; preds = %2
  %28 = getelementptr inbounds nuw i8, ptr %4, i64 22
  %29 = load i8, ptr %28, align 2, !range !5, !noundef !6
  %30 = trunc nuw i8 %29 to i1
  %31 = getelementptr inbounds nuw i8, ptr %1, i64 112
  br i1 %30, label %32, label %33

32:                                               ; preds = %27
  store i32 13, ptr %31, align 8
  br label %34

33:                                               ; preds = %27
  store i32 11, ptr %31, align 8
  br label %34

34:                                               ; preds = %32, %33, %25
  %35 = getelementptr inbounds nuw i8, ptr %1, i64 68
  store i32 6, ptr %35, align 4
  %36 = getelementptr inbounds nuw i8, ptr %1, i64 96
  store i32 1, ptr %36, align 8
  %37 = getelementptr inbounds nuw i8, ptr %4, i64 84
  %38 = load i16, ptr %37, align 4
  %39 = getelementptr inbounds nuw i8, ptr %1, i64 48
  store i16 %38, ptr %39, align 8
  %40 = tail call zeroext i1 @SDL_AddHintCallback_REAL(ptr noundef nonnull @.str.7, ptr noundef nonnull @SDL_PS5EnhancedReportsChanged, ptr noundef nonnull %4) #9
  %41 = tail call zeroext i1 @SDL_AddHintCallback_REAL(ptr noundef nonnull @.str.6, ptr noundef nonnull @SDL_PS5PlayerLEDHintChanged, ptr noundef nonnull %4) #9
  ret i1 true
}